; ModuleID = 'source-C-CXX/29/170.c'
source_filename = "source-C-CXX/29/170.c"
target datalayout = "e-m:e-p270:32:32-p271:32:32-p272:64:64-i64:64-f80:128-n8:16:32:64-S128"
target triple = "x86_64-pc-linux-gnu"

@.str = private unnamed_addr constant [3 x i8] c"%d\00", align 1

; Function Attrs: nofree norecurse nosync nounwind readnone sspstrong uwtable
define dso_local i32 @Dec(i32 %0) local_unnamed_addr #0 {
  switch i32 %0, label %2 [
    i32 97, label %10
    i32 87, label %10
    i32 77, label %10
    i32 67, label %10
    i32 57, label %10
    i32 47, label %10
    i32 37, label %10
    i32 27, label %10
    i32 17, label %10
    i32 7, label %10
  ]

2:                                                ; preds = %1
  %3 = mul i32 %0, -1227133513
  %4 = add i32 %3, -1
  %5 = icmp ult i32 %4, 14
  br i1 %5, label %10, label %6

6:                                                ; preds = %2
  %7 = add i32 %0, -70
  %8 = icmp ugt i32 %7, 9
  %9 = zext i1 %8 to i32
  br label %10

10:                                               ; preds = %2, %6, %1, %1, %1, %1, %1, %1, %1, %1, %1, %1
  %11 = phi i32 [ 0, %1 ], [ 0, %1 ], [ 0, %1 ], [ 0, %1 ], [ 0, %1 ], [ 0, %1 ], [ 0, %1 ], [ 0, %1 ], [ 0, %1 ], [ 0, %1 ], [ %9, %6 ], [ 0, %2 ]
  ret i32 %11
}

; Function Attrs: argmemonly mustprogress nofree nosync nounwind willreturn
declare void @llvm.lifetime.start.p0i8(i64 immarg, i8* nocapture) #1

; Function Attrs: argmemonly mustprogress nofree nosync nounwind willreturn
declare void @llvm.lifetime.end.p0i8(i64 immarg, i8* nocapture) #1

; Function Attrs: nofree nounwind sspstrong uwtable
define dso_local i32 @main() local_unnamed_addr #2 {
  %1 = alloca i32, align 4
  %2 = bitcast i32* %1 to i8*
  call void @llvm.lifetime.start.p0i8(i64 4, i8* nonnull %2) #4
  %3 = call i32 (i8*, ...) @__isoc99_scanf(i8* getelementptr inbounds ([3 x i8], [3 x i8]* @.str, i64 0, i64 0), i32* nonnull %1)
  %4 = load i32, i32* %1, align 4, !tbaa !5
  %5 = icmp slt i32 %4, 1
  br i1 %5, label %16, label %6

6:                                                ; preds = %0, %6
  %7 = phi i32 [ %13, %6 ], [ 0, %0 ]
  %8 = phi i32 [ %14, %6 ], [ 1, %0 ]
  %9 = call i32 @Dec(i32 %8)
  %10 = icmp eq i32 %9, 1
  %11 = mul nsw i32 %8, %8
  %12 = select i1 %10, i32 %11, i32 0
  %13 = add nuw nsw i32 %12, %7
  %14 = add nuw i32 %8, 1
  %15 = icmp eq i32 %8, %4
  br i1 %15, label %16, label %6, !llvm.loop !9

16:                                               ; preds = %6, %0
  %17 = phi i32 [ 0, %0 ], [ %13, %6 ]
  %18 = call i32 (i8*, ...) @printf(i8* nonnull dereferenceable(1) getelementptr inbounds ([3 x i8], [3 x i8]* @.str, i64 0, i64 0), i32 %17)
  call void @llvm.lifetime.end.p0i8(i64 4, i8* nonnull %2) #4
  ret i32 0
}

; Function Attrs: nofree nounwind
declare noundef i32 @__isoc99_scanf(i8* nocapture noundef readonly, ...) local_unnamed_addr #3

; Function Attrs: nofree nounwind
declare noundef i32 @printf(i8* nocapture noundef readonly, ...) local_unnamed_addr #3


!llvm.module.flags = !{!0, !1, !2, !3}
!llvm.ident = !{!4}

!0 = !{i32 1, !"wchar_size", i32 4}
!1 = !{i32 7, !"PIC Level", i32 2}
!2 = !{i32 7, !"PIE Level", i32 2}
!3 = !{i32 7, !"uwtable", i32 1}
!4 = !{!"clang version 13.0.0"}
!5 = !{!6, !6, i64 0}
!6 = !{!"int", !7, i64 0}
!7 = !{!"omnipotent char", !8, i64 0}
!8 = !{!"Simple C/C++ TBAA"}
!9 = distinct !{!9, !10}
!10 = !{!"llvm.loop.mustprogress"}
